; Function Attrs: nounwind uwtable
define noalias nonnull ptr @l_Std_Sat_AIG_RefVec_cast___boxed(ptr noundef readnone captures(none) %0, ptr noundef %1, ptr noundef %2, ptr noundef %3, ptr noundef %4, ptr noundef %5) local_unnamed_addr #1 {
  tail call void @lean_inc_heartbeat() #4
  %7 = tail call noalias ptr @mi_malloc_small(i64 noundef 24) #4
  %8 = icmp eq ptr %7, null
  br i1 %8, label %9, label %l_Std_Sat_AIG_RefVec_cast.exit

9:                                                ; preds = %6
  tail call void @lean_internal_panic_out_of_memory() #5
  unreachable

l_Std_Sat_AIG_RefVec_cast.exit:                   ; preds = %6
  %10 = getelementptr inbounds nuw i8, ptr %7, i64 4
  store i32 1, ptr %7, align 4, !tbaa !8
  store i32 -184549352, ptr %10, align 4
  %11 = getelementptr inbounds nuw i8, ptr %7, i64 8
  store ptr @l_Std_Sat_AIG_RefVec_cast___rarg___boxed, ptr %11, align 8, !tbaa !4
  %12 = getelementptr inbounds nuw i8, ptr %7, i64 16
  store i16 2, ptr %12, align 8, !tbaa !14
  %13 = getelementptr inbounds nuw i8, ptr %7, i64 18
  store i16 0, ptr %13, align 2, !tbaa !14
  %14 = ptrtoint ptr %5 to i64
  %15 = and i64 %14, 1
  %.not = icmp eq i64 %15, 0
  br i1 %.not, label %16, label %lean_dec.exit15

16:                                               ; preds = %l_Std_Sat_AIG_RefVec_cast.exit
  %17 = load i32, ptr %5, align 4, !tbaa !8
  %18 = icmp sgt i32 %17, 1
  br i1 %18, label %19, label %21, !prof !11

19:                                               ; preds = %16
  %20 = add nsw i32 %17, -1
  store i32 %20, ptr %5, align 4, !tbaa !8
  br label %lean_dec.exit15

21:                                               ; preds = %16
  %.not.i = icmp eq i32 %17, 0
  br i1 %.not.i, label %lean_dec.exit15, label %22

22:                                               ; preds = %21
  tail call void @lean_dec_ref_cold(ptr noundef nonnull %5) #4
  br label %lean_dec.exit15

lean_dec.exit15:                                  ; preds = %22, %21, %19, %l_Std_Sat_AIG_RefVec_cast.exit
  %23 = ptrtoint ptr %4 to i64
  %24 = and i64 %23, 1
  %.not24 = icmp eq i64 %24, 0
  br i1 %.not24, label %25, label %lean_dec.exit14

25:                                               ; preds = %lean_dec.exit15
  %26 = load i32, ptr %4, align 4, !tbaa !8
  %27 = icmp sgt i32 %26, 1
  br i1 %27, label %28, label %30, !prof !11

28:                                               ; preds = %25
  %29 = add nsw i32 %26, -1
  store i32 %29, ptr %4, align 4, !tbaa !8
  br label %lean_dec.exit14

30:                                               ; preds = %25
  %.not.i16 = icmp eq i32 %26, 0
  br i1 %.not.i16, label %lean_dec.exit14, label %31

31:                                               ; preds = %30
  tail call void @lean_dec_ref_cold(ptr noundef nonnull %4) #4
  br label %lean_dec.exit14

lean_dec.exit14:                                  ; preds = %31, %30, %28, %lean_dec.exit15
  %32 = ptrtoint ptr %3 to i64
  %33 = and i64 %32, 1
  %.not25 = icmp eq i64 %33, 0
  br i1 %.not25, label %34, label %lean_dec.exit13

34:                                               ; preds = %lean_dec.exit14
  %35 = load i32, ptr %3, align 4, !tbaa !8
  %36 = icmp sgt i32 %35, 1
  br i1 %36, label %37, label %39, !prof !11

37:                                               ; preds = %34
  %38 = add nsw i32 %35, -1
  store i32 %38, ptr %3, align 4, !tbaa !8
  br label %lean_dec.exit13

39:                                               ; preds = %34
  %.not.i18 = icmp eq i32 %35, 0
  br i1 %.not.i18, label %lean_dec.exit13, label %40

40:                                               ; preds = %39
  tail call void @lean_dec_ref_cold(ptr noundef nonnull %3) #4
  br label %lean_dec.exit13

lean_dec.exit13:                                  ; preds = %40, %39, %37, %lean_dec.exit14
  %41 = ptrtoint ptr %2 to i64
  %42 = and i64 %41, 1
  %.not26 = icmp eq i64 %42, 0
  br i1 %.not26, label %43, label %lean_dec.exit12

43:                                               ; preds = %lean_dec.exit13
  %44 = load i32, ptr %2, align 4, !tbaa !8
  %45 = icmp sgt i32 %44, 1
  br i1 %45, label %46, label %48, !prof !11

46:                                               ; preds = %43
  %47 = add nsw i32 %44, -1
  store i32 %47, ptr %2, align 4, !tbaa !8
  br label %lean_dec.exit12

48:                                               ; preds = %43
  %.not.i20 = icmp eq i32 %44, 0
  br i1 %.not.i20, label %lean_dec.exit12, label %49

49:                                               ; preds = %48
  tail call void @lean_dec_ref_cold(ptr noundef nonnull %2) #4
  br label %lean_dec.exit12

lean_dec.exit12:                                  ; preds = %49, %48, %46, %lean_dec.exit13
  %50 = ptrtoint ptr %1 to i64
  %51 = and i64 %50, 1
  %.not27 = icmp eq i64 %51, 0
  br i1 %.not27, label %52, label %lean_dec.exit

52:                                               ; preds = %lean_dec.exit12
  %53 = load i32, ptr %1, align 4, !tbaa !8
  %54 = icmp sgt i32 %53, 1
  br i1 %54, label %55, label %57, !prof !11

55:                                               ; preds = %52
  %56 = add nsw i32 %53, -1
  store i32 %56, ptr %1, align 4, !tbaa !8
  br label %lean_dec.exit

57:                                               ; preds = %52
  %.not.i22 = icmp eq i32 %53, 0
  br i1 %.not.i22, label %lean_dec.exit, label %58

58:                                               ; preds = %57
  tail call void @lean_dec_ref_cold(ptr noundef nonnull %1) #4
  br label %lean_dec.exit

lean_dec.exit:                                    ; preds = %58, %57, %55, %lean_dec.exit12
  ret ptr %7
}